target datalayout = "e-m:e-p270:32:32-p271:32:32-p272:64:64-i64:64-i128:128-f80:128-n8:16:32:64-S128"
target triple = "x86_64-pc-linux-gnu"

%struct._php_core_globals = type { i64, i8, i8, i8, i8, i8, i8, i8, i8, ptr, ptr, i64, i64, i64, ptr, ptr, ptr, ptr, ptr, i8, ptr, ptr, ptr, ptr, i64, ptr, ptr, ptr, ptr, ptr, ptr, ptr, %struct._arg_separators, ptr, %struct._zend_array, i16, i8, i8, %struct._zend_llist, [6 x %struct._zval_struct], i8, i8, i8, i8, i8, ptr, ptr, i64, [8 x i8], i8, i8, i8, i8, i8, i8, i32, i32, ptr, ptr, ptr, ptr, i64, i64, ptr, i64, ptr, ptr, i8, i8, i8, i8, i8, i8, i64, ptr, i64, i64 }
%struct._arg_separators = type { ptr, ptr }
%struct._zend_array = type { %struct._zend_refcounted_h, %union.anon.0, i32, %union.anon.1, i32, i32, i32, i32, i64, ptr }
%struct._zend_refcounted_h = type { i32, %union.anon }
%union.anon = type { i32 }
%union.anon.0 = type { i32 }
%union.anon.1 = type { ptr }
%struct._zend_llist = type { ptr, ptr, i64, i64, ptr, i8, ptr }
%struct._zval_struct = type { %union._zend_value, %union.anon.3, %union.anon.6 }
%union._zend_value = type { i64 }
%union.anon.3 = type { i32 }
%union.anon.6 = type { i32 }
%struct._sapi_globals_struct = type { ptr, %struct.sapi_request_info, %struct.sapi_headers_struct, i64, i8, i8, %struct.stat, ptr, ptr, ptr, i64, i32, i8, double, %struct._zend_array, %struct._zval_struct, %struct._zend_fcall_info_cache, %struct.sapi_request_parse_body_context }
%struct.sapi_request_info = type { ptr, ptr, ptr, i64, ptr, ptr, ptr, ptr, i8, i8, i8, ptr, ptr, ptr, ptr, ptr, ptr, ptr, i32, i32, ptr, i32 }
%struct.sapi_headers_struct = type { %struct._zend_llist, i32, i8, ptr, ptr }
%struct.stat = type { i64, i64, i64, i32, i32, i32, i32, i64, i64, i64, i64, %struct.timespec, %struct.timespec, %struct.timespec, [3 x i64] }
%struct.timespec = type { i64, i64 }
%struct._zend_fcall_info_cache = type { ptr, ptr, ptr, ptr, ptr }
%struct.sapi_request_parse_body_context = type { i8, [5 x %struct.anon.7] }
%struct.anon.7 = type { i8, i64 }

@core_globals = dso_local global %struct._php_core_globals zeroinitializer, align 8
@sapi_globals = external global %struct._sapi_globals_struct, align 8
@.str.5 = private unnamed_addr constant [6 x i8] c"UTF-8\00", align 1

; Function Attrs: nounwind uwtable
define dso_local ptr @php_get_input_encoding() #1 {
  %1 = alloca ptr, align 8
  %2 = load ptr, ptr getelementptr inbounds nuw (%struct._php_core_globals, ptr @core_globals, i32 0, i32 29), align 8, !tbaa !45
  %3 = icmp ne ptr %2, null
  br i1 %3, label %4, label %12

4:                                                ; preds = %0
  %5 = load ptr, ptr getelementptr inbounds nuw (%struct._php_core_globals, ptr @core_globals, i32 0, i32 29), align 8, !tbaa !45
  %6 = getelementptr inbounds i8, ptr %5, i64 0
  %7 = load i8, ptr %6, align 1, !tbaa !27
  %8 = sext i8 %7 to i32
  %9 = icmp ne i32 %8, 0
  br i1 %9, label %10, label %12

10:                                               ; preds = %4
  %11 = load ptr, ptr getelementptr inbounds nuw (%struct._php_core_globals, ptr @core_globals, i32 0, i32 29), align 8, !tbaa !45
  store ptr %11, ptr %1, align 8
  br label %25

12:                                               ; preds = %4, %0
  %13 = load ptr, ptr getelementptr inbounds nuw (%struct._sapi_globals_struct, ptr @sapi_globals, i32 0, i32 8), align 8, !tbaa !28
  %14 = icmp ne ptr %13, null
  br i1 %14, label %15, label %23

15:                                               ; preds = %12
  %16 = load ptr, ptr getelementptr inbounds nuw (%struct._sapi_globals_struct, ptr @sapi_globals, i32 0, i32 8), align 8, !tbaa !28
  %17 = getelementptr inbounds i8, ptr %16, i64 0
  %18 = load i8, ptr %17, align 1, !tbaa !27
  %19 = sext i8 %18 to i32
  %20 = icmp ne i32 %19, 0
  br i1 %20, label %21, label %23

21:                                               ; preds = %15
  %22 = load ptr, ptr getelementptr inbounds nuw (%struct._sapi_globals_struct, ptr @sapi_globals, i32 0, i32 8), align 8, !tbaa !28
  store ptr %22, ptr %1, align 8
  br label %25

23:                                               ; preds = %15, %12
  br label %24

24:                                               ; preds = %23
  store ptr @.str.5, ptr %1, align 8
  br label %25

25:                                               ; preds = %24, %21, %10
  %26 = load ptr, ptr %1, align 8
  ret ptr %26
}