; Function Attrs: mustprogress nofree norecurse nosync nounwind willreturn memory(read, inaccessiblemem: none) uwtable
define dso_local ptr @php_get_input_encoding() local_unnamed_addr #4 {
  %1 = load ptr, ptr getelementptr inbounds nuw (i8, ptr @core_globals, i64 176), align 8, !tbaa !42
  %.not = icmp eq ptr %1, null
  br i1 %.not, label %4, label %2

2:                                                ; preds = %0
  %3 = load i8, ptr %1, align 1, !tbaa !24
  %.not3 = icmp eq i8 %3, 0
  br i1 %.not3, label %4, label %9

4:                                                ; preds = %2, %0
  %5 = load ptr, ptr getelementptr inbounds nuw (i8, ptr @sapi_globals, i64 408), align 8, !tbaa !25
  %.not4 = icmp eq ptr %5, null
  br i1 %.not4, label %8, label %6

6:                                                ; preds = %4
  %7 = load i8, ptr %5, align 1, !tbaa !24
  %.not5 = icmp eq i8 %7, 0
  br i1 %.not5, label %8, label %9

8:                                                ; preds = %4, %6
  br label %9

9:                                                ; preds = %6, %2, %8
  %.0 = phi ptr [ @.str.5, %8 ], [ %1, %2 ], [ %5, %6 ]
  ret ptr %.0
}